target datalayout = "e-m:e-p270:32:32-p271:32:32-p272:64:64-i64:64-i128:128-f80:128-n8:16:32:64-S128"
target triple = "x86_64-pc-linux-gnu"

%struct.ggml_backend_buffer_i = type { ptr, ptr, ptr, ptr, ptr, ptr, ptr, ptr, ptr }
%struct.ggml_backend_buffer = type { %struct.ggml_backend_buffer_i, ptr, ptr, i64, i32 }

; Function Attrs: mustprogress uwtable
define void @ggml_backend_buffer_free(ptr noundef %0) #0 {
  %2 = alloca ptr, align 8
  store ptr %0, ptr %2, align 8, !tbaa !24
  %3 = load ptr, ptr %2, align 8, !tbaa !24
  %4 = icmp eq ptr %3, null
  br i1 %4, label %5, label %6

5:                                                ; preds = %1
  br label %22

6:                                                ; preds = %1
  %7 = load ptr, ptr %2, align 8, !tbaa !24
  %8 = getelementptr inbounds nuw %struct.ggml_backend_buffer, ptr %7, i32 0, i32 0
  %9 = getelementptr inbounds nuw %struct.ggml_backend_buffer_i, ptr %8, i32 0, i32 0
  %10 = load ptr, ptr %9, align 8, !tbaa !33
  %11 = icmp ne ptr %10, null
  br i1 %11, label %12, label %18

12:                                               ; preds = %6
  %13 = load ptr, ptr %2, align 8, !tbaa !24
  %14 = getelementptr inbounds nuw %struct.ggml_backend_buffer, ptr %13, i32 0, i32 0
  %15 = getelementptr inbounds nuw %struct.ggml_backend_buffer_i, ptr %14, i32 0, i32 0
  %16 = load ptr, ptr %15, align 8, !tbaa !33
  %17 = load ptr, ptr %2, align 8, !tbaa !24
  call void %16(ptr noundef %17)
  br label %18

18:                                               ; preds = %12, %6
  %19 = load ptr, ptr %2, align 8, !tbaa !24
  %20 = icmp eq ptr %19, null
  br i1 %20, label %22, label %21

21:                                               ; preds = %18
  call void @_ZdlPvm(ptr noundef %19, i64 noundef 104) #17
  br label %22

22:                                               ; preds = %5, %21, %18
  ret void
}