; Function Attrs: mustprogress uwtable
define void @ggml_backend_buffer_free(ptr noundef %0) local_unnamed_addr #0 {
  %2 = icmp eq ptr %0, null
  br i1 %2, label %7, label %3

3:                                                ; preds = %1
  %4 = load ptr, ptr %0, align 8, !tbaa !27
  %.not = icmp eq ptr %4, null
  br i1 %.not, label %6, label %5

5:                                                ; preds = %3
  tail call void %4(ptr noundef nonnull %0)
  br label %6

6:                                                ; preds = %3, %5
  tail call void @_ZdlPvm(ptr noundef nonnull %0, i64 noundef 104) #23
  br label %7

7:                                                ; preds = %1, %6
  ret void
}